; Function Attrs: mustprogress nofree norecurse nosync nounwind willreturn memory(argmem: readwrite) uwtable
define internal noundef zeroext i1 @"_ZNSt17_Function_handlerIFvPKvPKN3dap5ErrorEEZNS2_7Session19registerSentHandlerIZN10cmDebugger17cmDebuggerAdapterC1ESt10shared_ptrINS9_20cmDebuggerConnectionEESt8optionalISB_INS2_6WriterEEEE3$_2NS2_23CMakeInitializeResponseEEEvOT_EUlS1_S5_E_E10_M_managerERSt9_Any_dataRKSO_St18_Manager_operation"(ptr nocapture noundef nonnull writeonly align 8 dereferenceable(16) %0, ptr noundef nonnull align 8 dereferenceable(16) %1, i32 noundef %2) #12 align 2 personality ptr @__gxx_personality_v0 {
  switch i32 %2, label %"_ZNSt14_Function_base13_Base_managerIZN3dap7Session19registerSentHandlerIZN10cmDebugger17cmDebuggerAdapterC1ESt10shared_ptrINS4_20cmDebuggerConnectionEESt8optionalIS6_INS1_6WriterEEEE3$_2NS1_23CMakeInitializeResponseEEEvOT_EUlPKvPKNS1_5ErrorEE_E10_M_managerERSt9_Any_dataRKSO_St18_Manager_operation.exit" [
    i32 0, label %4
    i32 1, label %5
    i32 2, label %6
  ]

4:                                                ; preds = %3
  store ptr @"_ZTIZN3dap7Session19registerSentHandlerIZN10cmDebugger17cmDebuggerAdapterC1ESt10shared_ptrINS2_20cmDebuggerConnectionEESt8optionalIS4_INS_6WriterEEEE3$_2NS_23CMakeInitializeResponseEEEvOT_EUlPKvPKNS_5ErrorEE_", ptr %0, align 8
  br label %"_ZNSt14_Function_base13_Base_managerIZN3dap7Session19registerSentHandlerIZN10cmDebugger17cmDebuggerAdapterC1ESt10shared_ptrINS4_20cmDebuggerConnectionEESt8optionalIS6_INS1_6WriterEEEE3$_2NS1_23CMakeInitializeResponseEEEvOT_EUlPKvPKNS1_5ErrorEE_E10_M_managerERSt9_Any_dataRKSO_St18_Manager_operation.exit"

5:                                                ; preds = %3
  store ptr %1, ptr %0, align 8
  br label %"_ZNSt14_Function_base13_Base_managerIZN3dap7Session19registerSentHandlerIZN10cmDebugger17cmDebuggerAdapterC1ESt10shared_ptrINS4_20cmDebuggerConnectionEESt8optionalIS6_INS1_6WriterEEEE3$_2NS1_23CMakeInitializeResponseEEEvOT_EUlPKvPKNS1_5ErrorEE_E10_M_managerERSt9_Any_dataRKSO_St18_Manager_operation.exit"

6:                                                ; preds = %3
  %.val.i = load i64, ptr %1, align 8
  store i64 %.val.i, ptr %0, align 8
  br label %"_ZNSt14_Function_base13_Base_managerIZN3dap7Session19registerSentHandlerIZN10cmDebugger17cmDebuggerAdapterC1ESt10shared_ptrINS4_20cmDebuggerConnectionEESt8optionalIS6_INS1_6WriterEEEE3$_2NS1_23CMakeInitializeResponseEEEvOT_EUlPKvPKNS1_5ErrorEE_E10_M_managerERSt9_Any_dataRKSO_St18_Manager_operation.exit"

"_ZNSt14_Function_base13_Base_managerIZN3dap7Session19registerSentHandlerIZN10cmDebugger17cmDebuggerAdapterC1ESt10shared_ptrINS4_20cmDebuggerConnectionEESt8optionalIS6_INS1_6WriterEEEE3$_2NS1_23CMakeInitializeResponseEEEvOT_EUlPKvPKNS1_5ErrorEE_E10_M_managerERSt9_Any_dataRKSO_St18_Manager_operation.exit": ; preds = %3, %6, %5, %4
  ret i1 false
}